target datalayout = "e-m:e-p270:32:32-p271:32:32-p272:64:64-i64:64-i128:128-f80:128-n8:16:32:64-S128"
target triple = "x86_64-pc-linux-gnu"

%struct.mcpe_session_state = type { i8, i32 }
%struct._packet_info = type { ptr, ptr, i32, i32, %struct.nstime_t, %struct.nstime_t, %struct.nstime_t, i8, ptr, ptr, ptr, ptr, %struct._address, %struct._address, %struct._address, %struct._address, %struct._address, %struct._address, i32, ptr, i8, [3 x i8], %struct.anon, i32, i32, i32, i32, ptr, i8, ptr, ptr, i16, i16, i32, i32, i16, i32, i32, ptr, ptr, ptr, i8, i8, i16, i16, i16, i32, i16, i16, ptr, ptr, ptr, ptr, ptr, i32, i32 }
%struct.nstime_t = type { i64, i32 }
%struct._address = type { i32, i32, ptr, ptr }
%struct.anon = type { i8, [3 x i8] }

@hf_mcpe_string_length = internal global i32 0, align 4
@hf_mcpe_UTF8_string = internal global i32 0, align 4
@hf_mcpe_byte_string = internal global i32 0, align 4
@hf_mcpe_public_key = internal global i32 0, align 4
@hf_mcpe_server_token = internal global i32 0, align 4
@ett_mcpe_string = internal global i32 0, align 4
@proto_mcpe = internal global i32 0, align 4

; Function Attrs: null_pointer_is_valid sspstrong uwtable
define internal ptr @mcpe_get_session_state(ptr noundef %0) #0 {
  %2 = alloca ptr, align 8
  %3 = alloca ptr, align 8
  %4 = alloca ptr, align 8
  store ptr %0, ptr %2, align 8
  call void @llvm.lifetime.start.p0(i64 8, ptr %3) #7
  call void @llvm.lifetime.start.p0(i64 8, ptr %4) #7
  %5 = load ptr, ptr %2, align 8
  %6 = call ptr @find_or_create_conversation(ptr noundef %5)
  store ptr %6, ptr %3, align 8
  %7 = load ptr, ptr %3, align 8
  %8 = load i32, ptr @proto_mcpe, align 4
  %9 = call ptr @conversation_get_proto_data(ptr noundef %7, i32 noundef %8)
  store ptr %9, ptr %4, align 8
  %10 = load ptr, ptr %4, align 8
  %11 = icmp eq ptr %10, null
  br i1 %11, label %12, label %22

12:                                               ; preds = %1
  %13 = call ptr @wmem_file_scope()
  %14 = call noalias ptr @wmem_alloc(ptr noundef %13, i64 noundef 8) #9
  store ptr %14, ptr %4, align 8
  %15 = load ptr, ptr %4, align 8
  %16 = getelementptr inbounds nuw %struct.mcpe_session_state, ptr %15, i32 0, i32 0
  store i8 0, ptr %16, align 4
  %17 = load ptr, ptr %4, align 8
  %18 = getelementptr inbounds nuw %struct.mcpe_session_state, ptr %17, i32 0, i32 1
  store i32 0, ptr %18, align 4
  %19 = load ptr, ptr %3, align 8
  %20 = load i32, ptr @proto_mcpe, align 4
  %21 = load ptr, ptr %4, align 8
  call void @conversation_add_proto_data(ptr noundef %19, i32 noundef %20, ptr noundef %21)
  br label %22

22:                                               ; preds = %12, %1
  %23 = load ptr, ptr %4, align 8
  call void @llvm.lifetime.end.p0(i64 8, ptr %4) #7
  call void @llvm.lifetime.end.p0(i64 8, ptr %3) #7
  ret ptr %23
}

; Function Attrs: null_pointer_is_valid sspstrong uwtable
define internal void @mcpe_dissect_string(ptr noundef %0, ptr noundef %1, i32 noundef %2, ptr noundef %3, ptr noundef %4, i32 noundef %5) #0 {
  %7 = alloca ptr, align 8
  %8 = alloca ptr, align 8
  %9 = alloca i32, align 4
  %10 = alloca ptr, align 8
  %11 = alloca ptr, align 8
  %12 = alloca i32, align 4
  %13 = alloca ptr, align 8
  %14 = alloca ptr, align 8
  %15 = alloca i32, align 4
  %16 = alloca i32, align 4
  %17 = alloca ptr, align 8
  %18 = alloca ptr, align 8
  store ptr %0, ptr %7, align 8
  store ptr %1, ptr %8, align 8
  store i32 %2, ptr %9, align 4
  store ptr %3, ptr %10, align 8
  store ptr %4, ptr %11, align 8
  store i32 %5, ptr %12, align 4
  call void @llvm.lifetime.start.p0(i64 8, ptr %13) #7
  call void @llvm.lifetime.start.p0(i64 8, ptr %14) #7
  call void @llvm.lifetime.start.p0(i64 4, ptr %15) #7
  call void @llvm.lifetime.start.p0(i64 4, ptr %16) #7
  %19 = load i32, ptr %12, align 4
  %20 = and i32 %19, -2147483648
  %21 = icmp ne i32 %20, 0
  br i1 %21, label %22, label %27

22:                                               ; preds = %6
  %23 = load ptr, ptr %10, align 8
  %24 = load ptr, ptr %11, align 8
  %25 = load i32, ptr %24, align 4
  %26 = call i32 @tvb_get_letohl(ptr noundef %23, i32 noundef %25)
  store i32 %26, ptr %15, align 4
  store i32 4, ptr %16, align 4
  br label %33

27:                                               ; preds = %6
  %28 = load ptr, ptr %10, align 8
  %29 = load ptr, ptr %11, align 8
  %30 = load i32, ptr %29, align 4
  %31 = call zeroext i16 @tvb_get_ntohs(ptr noundef %28, i32 noundef %30)
  %32 = zext i16 %31 to i32
  store i32 %32, ptr %15, align 4
  store i32 2, ptr %16, align 4
  br label %33

33:                                               ; preds = %27, %22
  %34 = load i32, ptr %12, align 4
  %35 = and i32 %34, 2
  %36 = icmp ne i32 %35, 0
  br i1 %36, label %37, label %84

37:                                               ; preds = %33
  call void @llvm.lifetime.start.p0(i64 8, ptr %17) #7
  %38 = load ptr, ptr %7, align 8
  %39 = getelementptr inbounds nuw %struct._packet_info, ptr %38, i32 0, i32 51
  %40 = load ptr, ptr %39, align 8
  %41 = load ptr, ptr %10, align 8
  %42 = load ptr, ptr %11, align 8
  %43 = load i32, ptr %42, align 4
  %44 = load i32, ptr %16, align 4
  %45 = add i32 %43, %44
  %46 = load i32, ptr %15, align 4
  %47 = call ptr @tvb_get_string_enc(ptr noundef %40, ptr noundef %41, i32 noundef %45, i32 noundef %46, i32 noundef 2)
  store ptr %47, ptr %17, align 8
  %48 = load ptr, ptr %8, align 8
  %49 = load i32, ptr %9, align 4
  %50 = load ptr, ptr %10, align 8
  %51 = load ptr, ptr %11, align 8
  %52 = load i32, ptr %51, align 4
  %53 = load i32, ptr %15, align 4
  %54 = load i32, ptr %16, align 4
  %55 = add i32 %53, %54
  %56 = load ptr, ptr %17, align 8
  %57 = call ptr @proto_tree_add_string(ptr noundef %48, i32 noundef %49, ptr noundef %50, i32 noundef %52, i32 noundef %55, ptr noundef %56)
  store ptr %57, ptr %13, align 8
  %58 = load ptr, ptr %13, align 8
  %59 = load i32, ptr @ett_mcpe_string, align 4
  %60 = call ptr @proto_item_add_subtree(ptr noundef %58, i32 noundef %59)
  store ptr %60, ptr %14, align 8
  %61 = load ptr, ptr %14, align 8
  %62 = load i32, ptr @hf_mcpe_string_length, align 4
  %63 = load ptr, ptr %10, align 8
  %64 = load ptr, ptr %11, align 8
  %65 = load i32, ptr %64, align 4
  %66 = load i32, ptr %16, align 4
  %67 = load i32, ptr %12, align 4
  %68 = call ptr @proto_tree_add_item(ptr noundef %61, i32 noundef %62, ptr noundef %63, i32 noundef %65, i32 noundef %66, i32 noundef %67)
  %69 = load i32, ptr %16, align 4
  %70 = load ptr, ptr %11, align 8
  %71 = load i32, ptr %70, align 4
  %72 = add i32 %71, %69
  store i32 %72, ptr %70, align 4
  %73 = load ptr, ptr %14, align 8
  %74 = load i32, ptr @hf_mcpe_UTF8_string, align 4
  %75 = load ptr, ptr %10, align 8
  %76 = load ptr, ptr %11, align 8
  %77 = load i32, ptr %76, align 4
  %78 = load i32, ptr %15, align 4
  %79 = call ptr @proto_tree_add_item(ptr noundef %73, i32 noundef %74, ptr noundef %75, i32 noundef %77, i32 noundef %78, i32 noundef 2)
  %80 = load i32, ptr %15, align 4
  %81 = load ptr, ptr %11, align 8
  %82 = load i32, ptr %81, align 4
  %83 = add i32 %82, %80
  store i32 %83, ptr %81, align 4
  call void @llvm.lifetime.end.p0(i64 8, ptr %17) #7
  br label %133

84:                                               ; preds = %33
  call void @llvm.lifetime.start.p0(i64 8, ptr %18) #7
  %85 = load ptr, ptr %7, align 8
  %86 = getelementptr inbounds nuw %struct._packet_info, ptr %85, i32 0, i32 51
  %87 = load ptr, ptr %86, align 8
  %88 = load ptr, ptr %10, align 8
  %89 = load ptr, ptr %11, align 8
  %90 = load i32, ptr %89, align 4
  %91 = load i32, ptr %16, align 4
  %92 = add i32 %90, %91
  %93 = load i32, ptr %15, align 4
  %94 = zext i32 %93 to i64
  %95 = call ptr @tvb_memdup(ptr noundef %87, ptr noundef %88, i32 noundef %92, i64 noundef %94)
  store ptr %95, ptr %18, align 8
  %96 = load ptr, ptr %8, align 8
  %97 = load i32, ptr %9, align 4
  %98 = load ptr, ptr %10, align 8
  %99 = load ptr, ptr %11, align 8
  %100 = load i32, ptr %99, align 4
  %101 = load i32, ptr %15, align 4
  %102 = load i32, ptr %16, align 4
  %103 = add i32 %101, %102
  %104 = load ptr, ptr %18, align 8
  %105 = load i32, ptr %15, align 4
  %106 = call ptr @proto_tree_add_bytes_with_length(ptr noundef %96, i32 noundef %97, ptr noundef %98, i32 noundef %100, i32 noundef %103, ptr noundef %104, i32 noundef %105)
  store ptr %106, ptr %13, align 8
  %107 = load ptr, ptr %13, align 8
  %108 = load i32, ptr @ett_mcpe_string, align 4
  %109 = call ptr @proto_item_add_subtree(ptr noundef %107, i32 noundef %108)
  store ptr %109, ptr %14, align 8
  %110 = load ptr, ptr %14, align 8
  %111 = load i32, ptr @hf_mcpe_string_length, align 4
  %112 = load ptr, ptr %10, align 8
  %113 = load ptr, ptr %11, align 8
  %114 = load i32, ptr %113, align 4
  %115 = load i32, ptr %16, align 4
  %116 = load i32, ptr %12, align 4
  %117 = call ptr @proto_tree_add_item(ptr noundef %110, i32 noundef %111, ptr noundef %112, i32 noundef %114, i32 noundef %115, i32 noundef %116)
  %118 = load i32, ptr %16, align 4
  %119 = load ptr, ptr %11, align 8
  %120 = load i32, ptr %119, align 4
  %121 = add i32 %120, %118
  store i32 %121, ptr %119, align 4
  %122 = load ptr, ptr %14, align 8
  %123 = load i32, ptr @hf_mcpe_byte_string, align 4
  %124 = load ptr, ptr %10, align 8
  %125 = load ptr, ptr %11, align 8
  %126 = load i32, ptr %125, align 4
  %127 = load i32, ptr %15, align 4
  %128 = call ptr @proto_tree_add_item(ptr noundef %122, i32 noundef %123, ptr noundef %124, i32 noundef %126, i32 noundef %127, i32 noundef 0)
  %129 = load i32, ptr %15, align 4
  %130 = load ptr, ptr %11, align 8
  %131 = load i32, ptr %130, align 4
  %132 = add i32 %131, %129
  store i32 %132, ptr %130, align 4
  call void @llvm.lifetime.end.p0(i64 8, ptr %18) #7
  br label %133

133:                                              ; preds = %84, %37
  call void @llvm.lifetime.end.p0(i64 4, ptr %16) #7
  call void @llvm.lifetime.end.p0(i64 4, ptr %15) #7
  call void @llvm.lifetime.end.p0(i64 8, ptr %14) #7
  call void @llvm.lifetime.end.p0(i64 8, ptr %13) #7
  ret void
}

; Function Attrs: null_pointer_is_valid sspstrong uwtable
define internal i32 @mcpe_dissect_server_to_client_handshake(ptr noundef %0, ptr noundef %1, ptr noundef %2, ptr noundef %3) #0 {
  %5 = alloca ptr, align 8
  %6 = alloca ptr, align 8
  %7 = alloca ptr, align 8
  %8 = alloca ptr, align 8
  %9 = alloca i32, align 4
  %10 = alloca ptr, align 8
  store ptr %0, ptr %5, align 8
  store ptr %1, ptr %6, align 8
  store ptr %2, ptr %7, align 8
  store ptr %3, ptr %8, align 8
  %11 = load ptr, ptr %7, align 8
  %12 = icmp ne ptr %11, null
  br i1 %12, label %13, label %31

13:                                               ; preds = %4
  call void @llvm.lifetime.start.p0(i64 4, ptr %9) #7
  store i32 1, ptr %9, align 4
  call void @llvm.lifetime.start.p0(i64 8, ptr %10) #7
  %14 = load ptr, ptr %6, align 8
  %15 = load ptr, ptr %7, align 8
  %16 = load i32, ptr @hf_mcpe_public_key, align 4
  %17 = load ptr, ptr %5, align 8
  call void @mcpe_dissect_string(ptr noundef %14, ptr noundef %15, i32 noundef %16, ptr noundef %17, ptr noundef %9, i32 noundef 2)
  %18 = load ptr, ptr %6, align 8
  %19 = load ptr, ptr %7, align 8
  %20 = load i32, ptr @hf_mcpe_server_token, align 4
  %21 = load ptr, ptr %5, align 8
  call void @mcpe_dissect_string(ptr noundef %18, ptr noundef %19, i32 noundef %20, ptr noundef %21, ptr noundef %9, i32 noundef 0)
  %22 = load ptr, ptr %6, align 8
  %23 = call ptr @mcpe_get_session_state(ptr noundef %22)
  store ptr %23, ptr %10, align 8
  %24 = load ptr, ptr %10, align 8
  %25 = getelementptr inbounds nuw %struct.mcpe_session_state, ptr %24, i32 0, i32 0
  store i8 1, ptr %25, align 4
  %26 = load ptr, ptr %6, align 8
  %27 = getelementptr inbounds nuw %struct._packet_info, ptr %26, i32 0, i32 3
  %28 = load i32, ptr %27, align 4
  %29 = load ptr, ptr %10, align 8
  %30 = getelementptr inbounds nuw %struct.mcpe_session_state, ptr %29, i32 0, i32 1
  store i32 %28, ptr %30, align 4
  call void @llvm.lifetime.end.p0(i64 8, ptr %10) #7
  call void @llvm.lifetime.end.p0(i64 4, ptr %9) #7
  br label %31

31:                                               ; preds = %13, %4
  %32 = load ptr, ptr %5, align 8
  %33 = call i32 @tvb_reported_length(ptr noundef %32)
  ret i32 %33
}