; Function Attrs: null_pointer_is_valid sspstrong uwtable
define internal i32 @mcpe_dissect_server_to_client_handshake(ptr noundef %0, ptr noundef %1, ptr noundef %2, ptr readnone captures(none) %3) #0 {
  %.not = icmp eq ptr %2, null
  br i1 %.not, label %47, label %5

5:                                                ; preds = %4
  %6 = load i32, ptr @hf_mcpe_public_key, align 4
  %7 = tail call zeroext i16 @tvb_get_ntohs(ptr noundef %0, i32 noundef 1)
  %8 = zext i16 %7 to i32
  %9 = getelementptr inbounds nuw i8, ptr %1, i64 408
  %10 = load ptr, ptr %9, align 8
  %11 = tail call ptr @tvb_get_string_enc(ptr noundef %10, ptr noundef %0, i32 noundef 3, i32 noundef %8, i32 noundef 2)
  %12 = add nuw nsw i32 %8, 2
  %13 = tail call ptr @proto_tree_add_string(ptr noundef nonnull %2, i32 noundef %6, ptr noundef %0, i32 noundef 1, i32 noundef %12, ptr noundef %11)
  %14 = load i32, ptr @ett_mcpe_string, align 4
  %15 = tail call ptr @proto_item_add_subtree(ptr noundef %13, i32 noundef %14)
  %16 = load i32, ptr @hf_mcpe_string_length, align 4
  %17 = tail call ptr @proto_tree_add_item(ptr noundef %15, i32 noundef %16, ptr noundef %0, i32 noundef 1, i32 noundef 2, i32 noundef 2)
  %18 = load i32, ptr @hf_mcpe_UTF8_string, align 4
  %19 = tail call ptr @proto_tree_add_item(ptr noundef %15, i32 noundef %18, ptr noundef %0, i32 noundef 3, i32 noundef %8, i32 noundef 2)
  %storemerge.i = add nuw nsw i32 %8, 3
  %20 = load i32, ptr @hf_mcpe_server_token, align 4
  %21 = tail call zeroext i16 @tvb_get_ntohs(ptr noundef %0, i32 noundef %storemerge.i)
  %22 = zext i16 %21 to i32
  %23 = load ptr, ptr %9, align 8
  %24 = add nuw nsw i32 %8, 5
  %25 = zext i16 %21 to i64
  %26 = tail call ptr @tvb_memdup(ptr noundef %23, ptr noundef %0, i32 noundef %24, i64 noundef %25)
  %27 = add nuw nsw i32 %22, 2
  %28 = tail call ptr @proto_tree_add_bytes_with_length(ptr noundef nonnull %2, i32 noundef %20, ptr noundef %0, i32 noundef %storemerge.i, i32 noundef %27, ptr noundef %26, i32 noundef %22)
  %29 = load i32, ptr @ett_mcpe_string, align 4
  %30 = tail call ptr @proto_item_add_subtree(ptr noundef %28, i32 noundef %29)
  %31 = load i32, ptr @hf_mcpe_string_length, align 4
  %32 = tail call ptr @proto_tree_add_item(ptr noundef %30, i32 noundef %31, ptr noundef %0, i32 noundef %storemerge.i, i32 noundef 2, i32 noundef 0)
  %33 = load i32, ptr @hf_mcpe_byte_string, align 4
  %34 = tail call ptr @proto_tree_add_item(ptr noundef %30, i32 noundef %33, ptr noundef %0, i32 noundef %24, i32 noundef %22, i32 noundef 0)
  %35 = tail call ptr @find_or_create_conversation(ptr noundef %1)
  %36 = load i32, ptr @proto_mcpe, align 4
  %37 = tail call ptr @conversation_get_proto_data(ptr noundef %35, i32 noundef %36)
  %38 = icmp eq ptr %37, null
  br i1 %38, label %39, label %mcpe_get_session_state.exit

39:                                               ; preds = %5
  %40 = tail call ptr @wmem_file_scope()
  %41 = tail call noalias dereferenceable_or_null(8) ptr @wmem_alloc(ptr noundef %40, i64 noundef 8) #5
  store i8 0, ptr %41, align 4
  %42 = getelementptr inbounds nuw i8, ptr %41, i64 4
  store i32 0, ptr %42, align 4
  %43 = load i32, ptr @proto_mcpe, align 4
  tail call void @conversation_add_proto_data(ptr noundef %35, i32 noundef %43, ptr noundef %41)
  br label %mcpe_get_session_state.exit

mcpe_get_session_state.exit:                      ; preds = %5, %39
  %.0.i = phi ptr [ %41, %39 ], [ %37, %5 ]
  store i8 1, ptr %.0.i, align 4
  %44 = getelementptr inbounds nuw i8, ptr %1, i64 20
  %45 = load i32, ptr %44, align 4
  %46 = getelementptr inbounds nuw i8, ptr %.0.i, i64 4
  store i32 %45, ptr %46, align 4
  br label %47

47:                                               ; preds = %mcpe_get_session_state.exit, %4
  %48 = tail call i32 @tvb_reported_length(ptr noundef %0)
  ret i32 %48
}